; Function Attrs: nounwind uwtable
define hidden zeroext i1 @SDL_SetLinuxThreadPriorityAndPolicy_REAL(i64 noundef %0, i32 noundef %1, i32 noundef %2) local_unnamed_addr #0 {
  %4 = alloca %struct.rlimit, align 8
  %5 = alloca %struct.sched_param, align 4
  %6 = alloca i64, align 8
  %7 = alloca i64, align 8
  %8 = alloca i32, align 4
  %9 = add i32 %2, -1
  %or.cond = icmp ult i32 %9, 2
  br i1 %or.cond, label %10, label %20

10:                                               ; preds = %3
  switch i32 %1, label %17 [
    i32 0, label %27
    i32 2, label %11
    i32 3, label %15
  ]

11:                                               ; preds = %10
  %12 = load i32, ptr @rtkit_max_realtime_priority, align 4
  %13 = mul nsw i32 %12, 3
  %14 = sdiv i32 %13, 4
  br label %27

15:                                               ; preds = %10
  %16 = load i32, ptr @rtkit_max_realtime_priority, align 4
  br label %27

17:                                               ; preds = %10
  %18 = load i32, ptr @rtkit_max_realtime_priority, align 4
  %19 = sdiv i32 %18, 2
  br label %27

20:                                               ; preds = %3
  %21 = icmp ult i32 %1, 4
  br i1 %21, label %switch.lookup, label %23

switch.lookup:                                    ; preds = %20
  %22 = zext nneg i32 %1 to i64
  %switch.gep = getelementptr inbounds nuw [4 x i32], ptr @switch.table.SDL_SetLinuxThreadPriorityAndPolicy_REAL, i64 0, i64 %22
  %switch.load = load i32, ptr %switch.gep, align 4
  br label %23

23:                                               ; preds = %20, %switch.lookup
  %.1 = phi i32 [ %switch.load, %switch.lookup ], [ 0, %20 ]
  %24 = trunc i64 %0 to i32
  %25 = tail call i32 @setpriority(i32 noundef 0, i32 noundef %24, i32 noundef %.1) #4
  %26 = icmp eq i32 %25, 0
  br i1 %26, label %59, label %55

27:                                               ; preds = %10, %15, %17, %11
  %.0.ph = phi i32 [ 1, %10 ], [ %19, %17 ], [ %16, %15 ], [ %14, %11 ]
  call void @llvm.lifetime.start.p0(i64 8, ptr nonnull %6) #4
  %28 = tail call i32 @getpid() #4
  %29 = sext i32 %28 to i64
  store i64 %29, ptr %6, align 8
  call void @llvm.lifetime.start.p0(i64 8, ptr nonnull %7) #4
  %sext = shl i64 %0, 32
  %30 = ashr exact i64 %sext, 32
  store i64 %30, ptr %7, align 8
  call void @llvm.lifetime.start.p0(i64 4, ptr nonnull %8) #4
  store i32 %.0.ph, ptr %8, align 4
  %31 = tail call i32 @pthread_once(ptr noundef nonnull @rtkit_initialize_once, ptr noundef nonnull @rtkit_initialize) #4
  %32 = tail call ptr @SDL_DBus_GetContext() #4
  %.not.i.i = icmp eq ptr %32, null
  br i1 %.not.i.i, label %get_rtkit_dbus_connection.exit.i, label %33

33:                                               ; preds = %27
  %.b5.i.i = load i1, ptr @rtkit_use_session_conn, align 1
  %.in.idx.i.i = select i1 %.b5.i.i, i64 0, i64 8
  %.in.i.i = getelementptr inbounds nuw i8, ptr %32, i64 %.in.idx.i.i
  %34 = load ptr, ptr %.in.i.i, align 8
  br label %get_rtkit_dbus_connection.exit.i

get_rtkit_dbus_connection.exit.i:                 ; preds = %33, %27
  %.0.i.i = phi ptr [ %34, %33 ], [ null, %27 ]
  %35 = load i32, ptr @rtkit_max_realtime_priority, align 4
  %36 = icmp ugt i32 %.0.ph, %35
  br i1 %36, label %37, label %38

37:                                               ; preds = %get_rtkit_dbus_connection.exit.i
  store i32 %35, ptr %8, align 4
  br label %38

38:                                               ; preds = %37, %get_rtkit_dbus_connection.exit.i
  call void @llvm.lifetime.start.p0(i64 16, ptr nonnull %4) #4
  %39 = tail call i32 @sched_getscheduler(i32 noundef 0) #4
  %40 = or i32 %39, 1073741824
  call void @llvm.lifetime.start.p0(i64 4, ptr nonnull %5) #4
  store i32 0, ptr %5, align 4
  %41 = call i32 @getrlimit(i32 noundef 15, ptr noundef nonnull %4) #4
  %.not.i6.i = icmp eq i32 %41, 0
  br i1 %.not.i6.i, label %42, label %rtkit_initialize_realtime_thread.exit.i

42:                                               ; preds = %38
  %43 = load i64, ptr @rtkit_max_rttime_usec, align 8
  %44 = getelementptr inbounds nuw i8, ptr %4, i64 8
  store i64 %43, ptr %44, align 8
  %45 = lshr i64 %43, 1
  store i64 %45, ptr %4, align 8
  %46 = call i32 @setrlimit(i32 noundef 15, ptr noundef nonnull %4) #4
  %.not10.i.i = icmp eq i32 %46, 0
  br i1 %.not10.i.i, label %47, label %rtkit_initialize_realtime_thread.exit.i

47:                                               ; preds = %42
  %48 = call i32 @sched_getparam(i32 noundef 0, ptr noundef nonnull %5) #4
  %.not11.i.i = icmp eq i32 %48, 0
  br i1 %.not11.i.i, label %49, label %rtkit_initialize_realtime_thread.exit.i

49:                                               ; preds = %47
  %50 = call i32 @sched_setscheduler(i32 noundef 0, i32 noundef %40, ptr noundef nonnull %5) #4
  br label %rtkit_initialize_realtime_thread.exit.i

rtkit_initialize_realtime_thread.exit.i:          ; preds = %49, %47, %42, %38
  call void @llvm.lifetime.end.p0(i64 4, ptr nonnull %5) #4
  call void @llvm.lifetime.end.p0(i64 16, ptr nonnull %4) #4
  %.not.i = icmp eq ptr %.0.i.i, null
  br i1 %.not.i, label %rtkit_setpriority_realtime.exit.thread, label %rtkit_setpriority_realtime.exit

rtkit_setpriority_realtime.exit.thread:           ; preds = %rtkit_initialize_realtime_thread.exit.i
  call void @llvm.lifetime.end.p0(i64 4, ptr nonnull %8) #4
  call void @llvm.lifetime.end.p0(i64 8, ptr nonnull %7) #4
  call void @llvm.lifetime.end.p0(i64 8, ptr nonnull %6) #4
  br label %57

rtkit_setpriority_realtime.exit:                  ; preds = %rtkit_initialize_realtime_thread.exit.i
  %51 = load ptr, ptr @rtkit_dbus_node, align 8
  %52 = load ptr, ptr @rtkit_dbus_path, align 8
  %53 = load ptr, ptr @rtkit_dbus_interface, align 8
  %54 = call zeroext i1 (ptr, ptr, ptr, ptr, ptr, ...) @SDL_DBus_CallMethodOnConnection(ptr noundef nonnull %.0.i.i, ptr noundef %51, ptr noundef %52, ptr noundef %53, ptr noundef nonnull @.str.10, i32 noundef 116, ptr noundef nonnull %6, i32 noundef 116, ptr noundef nonnull %7, i32 noundef 117, ptr noundef nonnull %8, i32 noundef 0, i32 noundef 0) #4
  call void @llvm.lifetime.end.p0(i64 4, ptr nonnull %8) #4
  call void @llvm.lifetime.end.p0(i64 8, ptr nonnull %7) #4
  call void @llvm.lifetime.end.p0(i64 8, ptr nonnull %6) #4
  br i1 %54, label %59, label %57

55:                                               ; preds = %23
  %56 = tail call fastcc zeroext i1 @rtkit_setpriority_nice(i32 noundef %24, i32 noundef %.1)
  br i1 %56, label %59, label %57

57:                                               ; preds = %rtkit_setpriority_realtime.exit.thread, %55, %rtkit_setpriority_realtime.exit
  %58 = call zeroext i1 (ptr, ...) @SDL_SetError_REAL(ptr noundef nonnull @.str) #4
  br label %59

59:                                               ; preds = %55, %rtkit_setpriority_realtime.exit, %23, %57
  %.019 = phi i1 [ %58, %57 ], [ true, %23 ], [ true, %rtkit_setpriority_realtime.exit ], [ true, %55 ]
  ret i1 %.019
}